target datalayout = "e-m:e-p270:32:32-p271:32:32-p272:64:64-i64:64-i128:128-f80:128-n8:16:32:64-S128"
target triple = "x86_64-pc-linux-gnu"

@.str.108 = private unnamed_addr constant [17 x i8] c"UWB UCI Protocol\00", align 1
@.str.109 = private unnamed_addr constant [4 x i8] c"UCI\00", align 1
@.str.110 = private unnamed_addr constant [4 x i8] c"uci\00", align 1
@proto_uci = internal global i32 0, align 4
@.str.111 = private unnamed_addr constant [9 x i8] c"tcp.port\00", align 1
@.str.112 = private unnamed_addr constant [9 x i8] c"TCP port\00", align 1
@.str.113 = private unnamed_addr constant [26 x i8] c"Select preferred TCP port\00", align 1
@gPREF_TCP_PORT = internal global i32 7000, align 4
@.str.114 = private unnamed_addr constant [14 x i8] c"tcp.desegment\00", align 1
@.str.115 = private unnamed_addr constant [14 x i8] c"TCP desegment\00", align 1
@.str.116 = private unnamed_addr constant [46 x i8] c"Enable desegmentation of UCI packets over TCP\00", align 1
@gPREF_TCP_DESEGMENT = internal global i32 1, align 4
@handle_uci = internal global ptr null, align 8

; Function Attrs: nounwind uwtable
define hidden void @proto_register_uci() #0 {
  %1 = alloca ptr, align 8
  %2 = call i32 @proto_register_protocol(ptr noundef @.str.108, ptr noundef @.str.109, ptr noundef @.str.110)
  store i32 %2, ptr @proto_uci, align 4
  %3 = load i32, ptr @proto_uci, align 4
  call void @proto_register_field_array(i32 noundef %3, ptr noundef @proto_register_uci.hf, i32 noundef 59)
  call void @proto_register_subtree_array(ptr noundef @proto_register_uci.ett, i32 noundef 13)
  %4 = load i32, ptr @proto_uci, align 4
  %5 = call ptr @prefs_register_protocol(i32 noundef %4, ptr noundef @proto_reg_handoff_uci)
  store ptr %5, ptr %1, align 8
  %6 = load ptr, ptr %1, align 8
  call void @prefs_register_uint_preference(ptr noundef %6, ptr noundef @.str.111, ptr noundef @.str.112, ptr noundef @.str.113, i32 noundef 10, ptr noundef @gPREF_TCP_PORT)
  %7 = load ptr, ptr %1, align 8
  call void @prefs_register_bool_preference(ptr noundef %7, ptr noundef @.str.114, ptr noundef @.str.115, ptr noundef @.str.116, ptr noundef @gPREF_TCP_DESEGMENT)
  %8 = load i32, ptr @proto_uci, align 4
  %9 = call ptr @create_dissector_handle(ptr noundef @dissect_uci, i32 noundef %8)
  store ptr %9, ptr @handle_uci, align 8
  ret void
}