; Function Attrs: nounwind uwtable
define hidden void @proto_register_uci() local_unnamed_addr #0 {
  %1 = tail call i32 @proto_register_protocol(ptr noundef nonnull @.str.108, ptr noundef nonnull @.str.109, ptr noundef nonnull @.str.110) #2
  store i32 %1, ptr @proto_uci, align 4
  tail call void @proto_register_field_array(i32 noundef %1, ptr noundef nonnull @proto_register_uci.hf, i32 noundef 59) #2
  tail call void @proto_register_subtree_array(ptr noundef nonnull @proto_register_uci.ett, i32 noundef 13) #2
  %2 = load i32, ptr @proto_uci, align 4
  %3 = tail call ptr @prefs_register_protocol(i32 noundef %2, ptr noundef nonnull @proto_reg_handoff_uci) #2
  tail call void @prefs_register_uint_preference(ptr noundef %3, ptr noundef nonnull @.str.111, ptr noundef nonnull @.str.112, ptr noundef nonnull @.str.113, i32 noundef 10, ptr noundef nonnull @gPREF_TCP_PORT) #2
  tail call void @prefs_register_bool_preference(ptr noundef %3, ptr noundef nonnull @.str.114, ptr noundef nonnull @.str.115, ptr noundef nonnull @.str.116, ptr noundef nonnull @gPREF_TCP_DESEGMENT) #2
  %4 = load i32, ptr @proto_uci, align 4
  %5 = tail call ptr @create_dissector_handle(ptr noundef nonnull @dissect_uci, i32 noundef %4) #2
  store ptr %5, ptr @handle_uci, align 8
  ret void
}